target datalayout = "e-m:e-p270:32:32-p271:32:32-p272:64:64-i64:64-i128:128-f80:128-n8:16:32:64-S128"
target triple = "x86_64-pc-linux-gnu"

@.str = private unnamed_addr constant [11 x i8] c"PyTime_MIN\00", align 1
@.str.1 = private unnamed_addr constant [11 x i8] c"PyTime_MAX\00", align 1

; Function Attrs: nounwind uwtable
define hidden i32 @_PyTestCapi_Init_Time(ptr noundef %0) #0 {
  %2 = alloca i32, align 4
  %3 = alloca ptr, align 8
  store ptr %0, ptr %3, align 8, !tbaa !3
  %4 = load ptr, ptr %3, align 8, !tbaa !3
  %5 = call i32 @PyModule_AddFunctions(ptr noundef %4, ptr noundef @test_methods)
  %6 = icmp slt i32 %5, 0
  br i1 %6, label %7, label %8

7:                                                ; preds = %1
  store i32 -1, ptr %2, align 4
  br label %23

8:                                                ; preds = %1
  br label %9

9:                                                ; preds = %8
  br label %10

10:                                               ; preds = %9
  %11 = load ptr, ptr %3, align 8, !tbaa !3
  %12 = call ptr @PyLong_FromLongLong(i64 noundef -9223372036854775808)
  %13 = call i32 @PyModule_AddObject(ptr noundef %11, ptr noundef @.str, ptr noundef %12)
  %14 = icmp slt i32 %13, 0
  br i1 %14, label %15, label %16

15:                                               ; preds = %10
  store i32 1, ptr %2, align 4
  br label %23

16:                                               ; preds = %10
  %17 = load ptr, ptr %3, align 8, !tbaa !3
  %18 = call ptr @PyLong_FromLongLong(i64 noundef 9223372036854775807)
  %19 = call i32 @PyModule_AddObject(ptr noundef %17, ptr noundef @.str.1, ptr noundef %18)
  %20 = icmp slt i32 %19, 0
  br i1 %20, label %21, label %22

21:                                               ; preds = %16
  store i32 1, ptr %2, align 4
  br label %23

22:                                               ; preds = %16
  store i32 0, ptr %2, align 4
  br label %23

23:                                               ; preds = %22, %21, %15, %7
  %24 = load i32, ptr %2, align 4
  ret i32 %24
}