; Function Attrs: nounwind uwtable
define hidden range(i32 -1, 2) i32 @_PyTestCapi_Init_Time(ptr noundef %0) local_unnamed_addr #0 {
  %2 = tail call i32 @PyModule_AddFunctions(ptr noundef %0, ptr noundef nonnull @test_methods) #4
  %3 = icmp slt i32 %2, 0
  br i1 %3, label %11, label %4

4:                                                ; preds = %1
  %5 = tail call ptr @PyLong_FromLongLong(i64 noundef -9223372036854775808) #4
  %6 = tail call i32 @PyModule_AddObject(ptr noundef %0, ptr noundef nonnull @.str, ptr noundef %5) #4
  %7 = icmp slt i32 %6, 0
  br i1 %7, label %11, label %8

8:                                                ; preds = %4
  %9 = tail call ptr @PyLong_FromLongLong(i64 noundef 9223372036854775807) #4
  %10 = tail call i32 @PyModule_AddObject(ptr noundef %0, ptr noundef nonnull @.str.1, ptr noundef %9) #4
  %.lobit = lshr i32 %10, 31
  br label %11

11:                                               ; preds = %8, %4, %1
  %.0 = phi i32 [ -1, %1 ], [ 1, %4 ], [ %.lobit, %8 ]
  ret i32 %.0
}